target datalayout = "e-m:e-p270:32:32-p271:32:32-p272:64:64-i64:64-i128:128-f80:128-n8:16:32:64-S128"
target triple = "x86_64-pc-linux-gnu"

%struct.SDL_DriverWii_Context = type { ptr, ptr, i64, i32, i32, i8, i32, i8, i8, i8, i8, [22 x i8], i64, i64, i64, i8, [6 x %struct.StickCalibrationData] }
%struct.StickCalibrationData = type { i16, i16, i16, i16 }
%struct.SDL_HIDAPI_Device = type { ptr, ptr, ptr, ptr, i16, i16, i16, ptr, %struct.SDL_GUID, i32, i32, i32, i32, i16, i16, i8, i32, i32, i32, ptr, ptr, ptr, ptr, %struct.SDL_AtomicInt, i32, ptr, i8, i8, i8, ptr, i32, ptr, ptr }
%struct.SDL_GUID = type { [16 x i8] }
%struct.SDL_AtomicInt = type { i32 }

@.str.1 = private unnamed_addr constant [15 x i8] c"Read timed out\00", align 1

; Function Attrs: nounwind uwtable
define internal zeroext i1 @WriteOutput(ptr noundef %0, ptr noundef %1, i32 noundef %2, i1 noundef zeroext %3) #0 {
  %5 = alloca i1, align 1
  %6 = alloca ptr, align 8
  %7 = alloca ptr, align 8
  %8 = alloca i32, align 4
  %9 = alloca i8, align 1
  store ptr %0, ptr %6, align 8
  store ptr %1, ptr %7, align 8
  store i32 %2, ptr %8, align 4
  %10 = zext i1 %3 to i8
  store i8 %10, ptr %9, align 1
  %11 = load i8, ptr %9, align 1, !range !5, !noundef !6
  %12 = trunc i8 %11 to i1
  br i1 %12, label %13, label %24

13:                                               ; preds = %4
  %14 = load ptr, ptr %6, align 8
  %15 = getelementptr inbounds nuw %struct.SDL_DriverWii_Context, ptr %14, i32 0, i32 0
  %16 = load ptr, ptr %15, align 8
  %17 = getelementptr inbounds nuw %struct.SDL_HIDAPI_Device, ptr %16, i32 0, i32 22
  %18 = load ptr, ptr %17, align 8
  %19 = load ptr, ptr %7, align 8
  %20 = load i32, ptr %8, align 4
  %21 = sext i32 %20 to i64
  %22 = call i32 @SDL_hid_write_REAL(ptr noundef %18, ptr noundef %19, i64 noundef %21)
  %23 = icmp sge i32 %22, 0
  store i1 %23, ptr %5, align 1
  br label %35

24:                                               ; preds = %4
  %25 = call zeroext i1 @SDL_HIDAPI_LockRumble()
  br i1 %25, label %27, label %26

26:                                               ; preds = %24
  store i1 false, ptr %5, align 1
  br label %35

27:                                               ; preds = %24
  %28 = load ptr, ptr %6, align 8
  %29 = getelementptr inbounds nuw %struct.SDL_DriverWii_Context, ptr %28, i32 0, i32 0
  %30 = load ptr, ptr %29, align 8
  %31 = load ptr, ptr %7, align 8
  %32 = load i32, ptr %8, align 4
  %33 = call i32 @SDL_HIDAPI_SendRumbleAndUnlock(ptr noundef %30, ptr noundef %31, i32 noundef %32)
  %34 = icmp sge i32 %33, 0
  store i1 %34, ptr %5, align 1
  br label %35

35:                                               ; preds = %27, %26, %13
  %36 = load i1, ptr %5, align 1
  ret i1 %36
}

; Function Attrs: nounwind uwtable
define internal i32 @ReadInput(ptr noundef %0) #0 {
  %2 = alloca i32, align 4
  %3 = alloca ptr, align 8
  %4 = alloca i32, align 4
  %5 = alloca i32, align 4
  store ptr %0, ptr %3, align 8
  call void @llvm.lifetime.start.p0(i64 4, ptr %4) #6
  %6 = load ptr, ptr %3, align 8
  %7 = getelementptr inbounds nuw %struct.SDL_DriverWii_Context, ptr %6, i32 0, i32 0
  %8 = load ptr, ptr %7, align 8
  %9 = getelementptr inbounds nuw %struct.SDL_HIDAPI_Device, ptr %8, i32 0, i32 23
  %10 = call i32 @SDL_GetAtomicInt_REAL(ptr noundef %9)
  %11 = icmp sgt i32 %10, 0
  br i1 %11, label %12, label %13

12:                                               ; preds = %1
  store i32 0, ptr %2, align 4
  store i32 1, ptr %5, align 4
  br label %24

13:                                               ; preds = %1
  %14 = load ptr, ptr %3, align 8
  %15 = getelementptr inbounds nuw %struct.SDL_DriverWii_Context, ptr %14, i32 0, i32 0
  %16 = load ptr, ptr %15, align 8
  %17 = getelementptr inbounds nuw %struct.SDL_HIDAPI_Device, ptr %16, i32 0, i32 22
  %18 = load ptr, ptr %17, align 8
  %19 = load ptr, ptr %3, align 8
  %20 = getelementptr inbounds nuw %struct.SDL_DriverWii_Context, ptr %19, i32 0, i32 11
  %21 = getelementptr inbounds [22 x i8], ptr %20, i64 0, i64 0
  %22 = call i32 @SDL_hid_read_timeout_REAL(ptr noundef %18, ptr noundef %21, i64 noundef 22, i32 noundef 0)
  store i32 %22, ptr %4, align 4
  %23 = load i32, ptr %4, align 4
  store i32 %23, ptr %2, align 4
  store i32 1, ptr %5, align 4
  br label %24

24:                                               ; preds = %13, %12
  call void @llvm.lifetime.end.p0(i64 4, ptr %4) #6
  %25 = load i32, ptr %2, align 4
  ret i32 %25
}

; Function Attrs: nounwind uwtable
define internal zeroext i1 @RequestButtonPacketType(ptr noundef %0, i32 noundef %1) #0 {
  %3 = alloca ptr, align 8
  %4 = alloca i32, align 4
  %5 = alloca [3 x i8], align 1
  %6 = alloca i8, align 1
  store ptr %0, ptr %3, align 8
  store i32 %1, ptr %4, align 4
  call void @llvm.lifetime.start.p0(i64 3, ptr %5) #6
  call void @llvm.lifetime.start.p0(i64 1, ptr %6) #6
  %7 = load ptr, ptr %3, align 8
  %8 = getelementptr inbounds nuw %struct.SDL_DriverWii_Context, ptr %7, i32 0, i32 7
  %9 = load i8, ptr %8, align 8, !range !5, !noundef !6
  %10 = trunc i8 %9 to i1
  %11 = zext i1 %10 to i8
  store i8 %11, ptr %6, align 1
  %12 = load i8, ptr %6, align 1
  %13 = zext i8 %12 to i32
  %14 = or i32 %13, 4
  %15 = trunc i32 %14 to i8
  store i8 %15, ptr %6, align 1
  %16 = getelementptr inbounds [3 x i8], ptr %5, i64 0, i64 0
  store i8 18, ptr %16, align 1
  %17 = load i8, ptr %6, align 1
  %18 = getelementptr inbounds [3 x i8], ptr %5, i64 0, i64 1
  store i8 %17, ptr %18, align 1
  %19 = load i32, ptr %4, align 4
  %20 = trunc i32 %19 to i8
  %21 = getelementptr inbounds [3 x i8], ptr %5, i64 0, i64 2
  store i8 %20, ptr %21, align 1
  %22 = load ptr, ptr %3, align 8
  %23 = getelementptr inbounds [3 x i8], ptr %5, i64 0, i64 0
  %24 = call zeroext i1 @WriteOutput(ptr noundef %22, ptr noundef %23, i32 noundef 3, i1 noundef zeroext false)
  call void @llvm.lifetime.end.p0(i64 1, ptr %6) #6
  call void @llvm.lifetime.end.p0(i64 3, ptr %5) #6
  ret i1 %24
}

; Function Attrs: nounwind uwtable
define internal i32 @GetButtonPacketType(ptr noundef %0) #0 {
  %2 = alloca i32, align 4
  %3 = alloca ptr, align 8
  store ptr %0, ptr %3, align 8
  %4 = load ptr, ptr %3, align 8
  %5 = getelementptr inbounds nuw %struct.SDL_DriverWii_Context, ptr %4, i32 0, i32 4
  %6 = load i32, ptr %5, align 4
  switch i32 %6, label %15 [
    i32 131, label %7
    i32 129, label %8
    i32 130, label %8
  ]

7:                                                ; preds = %1
  store i32 61, ptr %2, align 4
  br label %22

8:                                                ; preds = %1, %1
  %9 = load ptr, ptr %3, align 8
  %10 = getelementptr inbounds nuw %struct.SDL_DriverWii_Context, ptr %9, i32 0, i32 10
  %11 = load i8, ptr %10, align 1, !range !5, !noundef !6
  %12 = trunc i8 %11 to i1
  br i1 %12, label %13, label %14

13:                                               ; preds = %8
  store i32 53, ptr %2, align 4
  br label %22

14:                                               ; preds = %8
  store i32 50, ptr %2, align 4
  br label %22

15:                                               ; preds = %1
  %16 = load ptr, ptr %3, align 8
  %17 = getelementptr inbounds nuw %struct.SDL_DriverWii_Context, ptr %16, i32 0, i32 10
  %18 = load i8, ptr %17, align 1, !range !5, !noundef !6
  %19 = trunc i8 %18 to i1
  br i1 %19, label %20, label %21

20:                                               ; preds = %15
  store i32 53, ptr %2, align 4
  br label %22

21:                                               ; preds = %15
  store i32 48, ptr %2, align 4
  br label %22

22:                                               ; preds = %21, %20, %14, %13, %7
  %23 = load i32, ptr %2, align 4
  ret i32 %23
}

; Function Attrs: nounwind uwtable
define internal zeroext i1 @ReadInputSync(ptr noundef %0, i32 noundef %1, ptr noundef %2) #0 {
  %4 = alloca i1, align 1
  %5 = alloca ptr, align 8
  %6 = alloca i32, align 4
  %7 = alloca ptr, align 8
  %8 = alloca i64, align 8
  %9 = alloca i32, align 4
  %10 = alloca i32, align 4
  store ptr %0, ptr %5, align 8
  store i32 %1, ptr %6, align 4
  store ptr %2, ptr %7, align 8
  call void @llvm.lifetime.start.p0(i64 8, ptr %8) #6
  %11 = call i64 @SDL_GetTicks_REAL()
  %12 = add i64 %11, 250
  store i64 %12, ptr %8, align 8
  call void @llvm.lifetime.start.p0(i64 4, ptr %9) #6
  store i32 0, ptr %9, align 4
  br label %13

13:                                               ; preds = %45, %3
  %14 = load ptr, ptr %5, align 8
  %15 = call i32 @ReadInput(ptr noundef %14)
  store i32 %15, ptr %9, align 4
  %16 = icmp ne i32 %15, -1
  br i1 %16, label %17, label %46

17:                                               ; preds = %13
  %18 = load i32, ptr %9, align 4
  %19 = icmp sgt i32 %18, 0
  br i1 %19, label %20, label %39

20:                                               ; preds = %17
  %21 = load ptr, ptr %5, align 8
  %22 = getelementptr inbounds nuw %struct.SDL_DriverWii_Context, ptr %21, i32 0, i32 11
  %23 = getelementptr inbounds [22 x i8], ptr %22, i64 0, i64 0
  %24 = load i8, ptr %23, align 4
  %25 = zext i8 %24 to i32
  %26 = load i32, ptr %6, align 4
  %27 = icmp eq i32 %25, %26
  br i1 %27, label %28, label %38

28:                                               ; preds = %20
  %29 = load ptr, ptr %7, align 8
  %30 = icmp ne ptr %29, null
  br i1 %30, label %31, label %37

31:                                               ; preds = %28
  %32 = load ptr, ptr %7, align 8
  %33 = load ptr, ptr %5, align 8
  %34 = getelementptr inbounds nuw %struct.SDL_DriverWii_Context, ptr %33, i32 0, i32 11
  %35 = getelementptr inbounds [22 x i8], ptr %34, i64 0, i64 0
  %36 = call zeroext i1 %32(ptr noundef %35)
  br i1 %36, label %37, label %38

37:                                               ; preds = %31, %28
  store i1 true, ptr %4, align 1
  store i32 1, ptr %10, align 4
  br label %48

38:                                               ; preds = %31, %20
  br label %45

39:                                               ; preds = %17
  %40 = call i64 @SDL_GetTicks_REAL()
  %41 = load i64, ptr %8, align 8
  %42 = icmp uge i64 %40, %41
  br i1 %42, label %43, label %44

43:                                               ; preds = %39
  br label %46

44:                                               ; preds = %39
  call void @SDL_Delay_REAL(i32 noundef 1)
  br label %45

45:                                               ; preds = %44, %38
  br label %13, !llvm.loop !9

46:                                               ; preds = %43, %13
  %47 = call zeroext i1 (ptr, ...) @SDL_SetError_REAL(ptr noundef @.str.1)
  store i1 false, ptr %4, align 1
  store i32 1, ptr %10, align 4
  br label %48

48:                                               ; preds = %46, %37
  call void @llvm.lifetime.end.p0(i64 4, ptr %9) #6
  call void @llvm.lifetime.end.p0(i64 8, ptr %8) #6
  %49 = load i1, ptr %4, align 1
  ret i1 %49
}

; Function Attrs: nounwind uwtable
define internal void @ActivateMotionPlusWithMode(ptr noundef %0, i8 noundef zeroext %1) #0 {
  %3 = alloca ptr, align 8
  %4 = alloca i8, align 1
  store ptr %0, ptr %3, align 8
  store i8 %1, ptr %4, align 1
  ret void
}

; Function Attrs: nounwind uwtable
define internal void @ResetButtonPacketType(ptr noundef %0) #0 {
  %2 = alloca ptr, align 8
  store ptr %0, ptr %2, align 8
  %3 = load ptr, ptr %2, align 8
  %4 = load ptr, ptr %2, align 8
  %5 = call i32 @GetButtonPacketType(ptr noundef %4)
  %6 = call zeroext i1 @RequestButtonPacketType(ptr noundef %3, i32 noundef %5)
  ret void
}

; Function Attrs: nounwind uwtable
define internal void @DeactivateMotionPlus(ptr noundef %0) #0 {
  %2 = alloca ptr, align 8
  %3 = alloca i8, align 1
  store ptr %0, ptr %2, align 8
  call void @llvm.lifetime.start.p0(i64 1, ptr %3) #6
  store i8 85, ptr %3, align 1
  %4 = load ptr, ptr %2, align 8
  %5 = call zeroext i1 @WriteRegister(ptr noundef %4, i32 noundef 10748144, ptr noundef %3, i32 noundef 1, i1 noundef zeroext true)
  %6 = load ptr, ptr %2, align 8
  %7 = call zeroext i1 @ReadInputSync(ptr noundef %6, i32 noundef 32, ptr noundef null)
  %8 = load ptr, ptr %2, align 8
  %9 = getelementptr inbounds nuw %struct.SDL_DriverWii_Context, ptr %8, i32 0, i32 9
  store i8 0, ptr %9, align 2
  call void @llvm.lifetime.end.p0(i64 1, ptr %3) #6
  ret void
}

; Function Attrs: nounwind uwtable
define internal void @ActivateMotionPlus(ptr noundef %0) #0 {
  %2 = alloca ptr, align 8
  %3 = alloca i8, align 1
  store ptr %0, ptr %2, align 8
  call void @llvm.lifetime.start.p0(i64 1, ptr %3) #6
  store i8 4, ptr %3, align 1
  %4 = load ptr, ptr %2, align 8
  %5 = getelementptr inbounds nuw %struct.SDL_DriverWii_Context, ptr %4, i32 0, i32 4
  %6 = load i32, ptr %5, align 4
  %7 = icmp eq i32 %6, 129
  br i1 %7, label %8, label %9

8:                                                ; preds = %1
  store i8 5, ptr %3, align 1
  br label %16

9:                                                ; preds = %1
  %10 = load ptr, ptr %2, align 8
  %11 = getelementptr inbounds nuw %struct.SDL_DriverWii_Context, ptr %10, i32 0, i32 4
  %12 = load i32, ptr %11, align 4
  %13 = icmp eq i32 %12, 130
  br i1 %13, label %14, label %15

14:                                               ; preds = %9
  store i8 7, ptr %3, align 1
  br label %15

15:                                               ; preds = %14, %9
  br label %16

16:                                               ; preds = %15, %8
  %17 = load ptr, ptr %2, align 8
  %18 = load i8, ptr %3, align 1
  call void @ActivateMotionPlusWithMode(ptr noundef %17, i8 noundef zeroext %18)
  call void @llvm.lifetime.end.p0(i64 1, ptr %3) #6
  ret void
}

; Function Attrs: nounwind uwtable
define internal zeroext i1 @HIDAPI_DriverWii_SetJoystickSensorsEnabled(ptr noundef %0, ptr noundef %1, i1 noundef zeroext %2) #0 {
  %4 = alloca ptr, align 8
  %5 = alloca ptr, align 8
  %6 = alloca i8, align 1
  %7 = alloca ptr, align 8
  store ptr %0, ptr %4, align 8
  store ptr %1, ptr %5, align 8
  %8 = zext i1 %2 to i8
  store i8 %8, ptr %6, align 1
  call void @llvm.lifetime.start.p0(i64 8, ptr %7) #6
  %9 = load ptr, ptr %4, align 8
  %10 = getelementptr inbounds nuw %struct.SDL_HIDAPI_Device, ptr %9, i32 0, i32 20
  %11 = load ptr, ptr %10, align 8
  store ptr %11, ptr %7, align 8
  %12 = load i8, ptr %6, align 1, !range !5, !noundef !6
  %13 = trunc i8 %12 to i1
  %14 = zext i1 %13 to i32
  %15 = load ptr, ptr %7, align 8
  %16 = getelementptr inbounds nuw %struct.SDL_DriverWii_Context, ptr %15, i32 0, i32 10
  %17 = load i8, ptr %16, align 1, !range !5, !noundef !6
  %18 = trunc i8 %17 to i1
  %19 = zext i1 %18 to i32
  %20 = icmp ne i32 %14, %19
  br i1 %20, label %21, label %41

21:                                               ; preds = %3
  %22 = load i8, ptr %6, align 1, !range !5, !noundef !6
  %23 = trunc i8 %22 to i1
  %24 = load ptr, ptr %7, align 8
  %25 = getelementptr inbounds nuw %struct.SDL_DriverWii_Context, ptr %24, i32 0, i32 10
  %26 = zext i1 %23 to i8
  store i8 %26, ptr %25, align 1
  %27 = load ptr, ptr %7, align 8
  %28 = getelementptr inbounds nuw %struct.SDL_DriverWii_Context, ptr %27, i32 0, i32 8
  %29 = load i8, ptr %28, align 1, !range !5, !noundef !6
  %30 = trunc i8 %29 to i1
  br i1 %30, label %31, label %39

31:                                               ; preds = %21
  %32 = load i8, ptr %6, align 1, !range !5, !noundef !6
  %33 = trunc i8 %32 to i1
  br i1 %33, label %34, label %36

34:                                               ; preds = %31
  %35 = load ptr, ptr %7, align 8
  call void @ActivateMotionPlus(ptr noundef %35)
  br label %38

36:                                               ; preds = %31
  %37 = load ptr, ptr %7, align 8
  call void @DeactivateMotionPlus(ptr noundef %37)
  br label %38

38:                                               ; preds = %36, %34
  br label %39

39:                                               ; preds = %38, %21
  %40 = load ptr, ptr %7, align 8
  call void @ResetButtonPacketType(ptr noundef %40)
  br label %41

41:                                               ; preds = %39, %3
  call void @llvm.lifetime.end.p0(i64 8, ptr %7) #6
  ret i1 true
}