; Function Attrs: nounwind uwtable
define internal noundef zeroext i1 @HIDAPI_DriverWii_SetJoystickSensorsEnabled(ptr noundef readonly captures(none) %0, ptr readnone captures(none) %1, i1 noundef zeroext %2) #0 {
  %4 = alloca [3 x i8], align 1
  %5 = getelementptr inbounds nuw i8, ptr %0, i64 112
  %6 = load ptr, ptr %5, align 8
  %7 = getelementptr inbounds nuw i8, ptr %6, i64 43
  %8 = load i8, ptr %7, align 1, !range !5, !noundef !6
  %9 = zext i1 %2 to i8
  %.not = icmp eq i8 %8, %9
  br i1 %.not, label %51, label %10

10:                                               ; preds = %3
  store i8 %9, ptr %7, align 1
  %11 = getelementptr inbounds nuw i8, ptr %6, i64 41
  %12 = load i8, ptr %11, align 1, !range !5, !noundef !6
  %13 = trunc nuw i8 %12 to i1
  %.not9 = xor i1 %13, true
  %brmerge = or i1 %2, %.not9
  br i1 %brmerge, label %35, label %14

14:                                               ; preds = %10
  tail call fastcc void @WriteRegister(ptr noundef nonnull %6, i32 noundef 10748144, i8 85)
  %15 = tail call i64 @SDL_GetTicks_REAL() #7
  %16 = add i64 %15, 250
  %17 = getelementptr inbounds nuw i8, ptr %6, i64 44
  br label %.split.us.i.i

.split.us.i.i:                                    ; preds = %.split.us.i.i.backedge, %14
  %18 = load ptr, ptr %6, align 8
  %19 = getelementptr inbounds nuw i8, ptr %18, i64 136
  %20 = tail call i32 @SDL_GetAtomicInt_REAL(ptr noundef nonnull %19) #7
  %21 = icmp sgt i32 %20, 0
  br i1 %21, label %.thread.us.i.i, label %ReadInput.exit.us.i.i

ReadInput.exit.us.i.i:                            ; preds = %.split.us.i.i
  %22 = load ptr, ptr %6, align 8
  %23 = getelementptr inbounds nuw i8, ptr %22, i64 128
  %24 = load ptr, ptr %23, align 8
  %25 = tail call i32 @SDL_hid_read_timeout_REAL(ptr noundef %24, ptr noundef nonnull %17, i64 noundef 22, i32 noundef 0) #7
  %.not.us.i.i = icmp eq i32 %25, -1
  br i1 %.not.us.i.i, label %.split17.us.i.i, label %26

26:                                               ; preds = %ReadInput.exit.us.i.i
  %27 = icmp sgt i32 %25, 0
  br i1 %27, label %28, label %.thread.us.i.i

28:                                               ; preds = %26
  %29 = load i8, ptr %17, align 4
  %30 = icmp eq i8 %29, 32
  br i1 %30, label %DeactivateMotionPlus.exit, label %.split.us.i.i.backedge

.thread.us.i.i:                                   ; preds = %26, %.split.us.i.i
  %31 = tail call i64 @SDL_GetTicks_REAL() #7
  %.not10.us.i.i = icmp ult i64 %31, %16
  br i1 %.not10.us.i.i, label %32, label %.split17.us.i.i

32:                                               ; preds = %.thread.us.i.i
  tail call void @SDL_Delay_REAL(i32 noundef 1) #7
  br label %.split.us.i.i.backedge

.split.us.i.i.backedge:                           ; preds = %32, %28
  br label %.split.us.i.i, !llvm.loop !11

.split17.us.i.i:                                  ; preds = %.thread.us.i.i, %ReadInput.exit.us.i.i
  %33 = tail call zeroext i1 (ptr, ...) @SDL_SetError_REAL(ptr noundef nonnull @.str.1) #7
  br label %DeactivateMotionPlus.exit

DeactivateMotionPlus.exit:                        ; preds = %28, %.split17.us.i.i
  %34 = getelementptr inbounds nuw i8, ptr %6, i64 42
  store i8 0, ptr %34, align 2
  br label %35

35:                                               ; preds = %10, %DeactivateMotionPlus.exit
  %36 = getelementptr inbounds nuw i8, ptr %6, i64 28
  %37 = load i32, ptr %36, align 4
  switch i32 %37, label %38 [
    i32 131, label %GetButtonPacketType.exit.i
    i32 129, label %.sink.split.i.i
    i32 130, label %.sink.split.i.i
  ]

38:                                               ; preds = %35
  br label %.sink.split.i.i

.sink.split.i.i:                                  ; preds = %38, %35, %35
  %.sink4.i.i = phi i8 [ 48, %38 ], [ 50, %35 ], [ 50, %35 ]
  %39 = load i8, ptr %7, align 1, !range !5, !noundef !6
  %40 = trunc nuw i8 %39 to i1
  %41 = select i1 %40, i8 53, i8 %.sink4.i.i
  br label %GetButtonPacketType.exit.i

GetButtonPacketType.exit.i:                       ; preds = %.sink.split.i.i, %35
  %.0.i.i = phi i8 [ 61, %35 ], [ %41, %.sink.split.i.i ]
  call void @llvm.lifetime.start.p0(i64 3, ptr nonnull %4) #7
  %42 = getelementptr inbounds nuw i8, ptr %6, i64 40
  %43 = load i8, ptr %42, align 8, !range !5, !noundef !6
  %44 = or disjoint i8 %43, 4
  store i8 18, ptr %4, align 1
  %45 = getelementptr inbounds nuw i8, ptr %4, i64 1
  store i8 %44, ptr %45, align 1
  %46 = getelementptr inbounds nuw i8, ptr %4, i64 2
  store i8 %.0.i.i, ptr %46, align 1
  %47 = tail call zeroext i1 @SDL_HIDAPI_LockRumble() #7
  br i1 %47, label %48, label %ResetButtonPacketType.exit

48:                                               ; preds = %GetButtonPacketType.exit.i
  %49 = load ptr, ptr %6, align 8
  %50 = call i32 @SDL_HIDAPI_SendRumbleAndUnlock(ptr noundef %49, ptr noundef nonnull %4, i32 noundef 3) #7
  br label %ResetButtonPacketType.exit

ResetButtonPacketType.exit:                       ; preds = %GetButtonPacketType.exit.i, %48
  call void @llvm.lifetime.end.p0(i64 3, ptr nonnull %4) #7
  br label %51

51:                                               ; preds = %ResetButtonPacketType.exit, %3
  ret i1 true
}